target datalayout = "e-m:e-p270:32:32-p271:32:32-p272:64:64-i64:64-i128:128-f80:128-n8:16:32:64-S128"
target triple = "x86_64-pc-linux-gnu"

%struct.Fra_Par_t_ = type { i32, double, i32, i32, double, double, i32, i32, i32, i32, i32, i32, i32, i32, i32, i32, i32, i32, i32, i32, i32, i32, i32, i32, i32 }

; Function Attrs: nounwind uwtable
define ptr @Fra_FraigEquivence(ptr noundef %0, i32 noundef %1, i32 noundef %2) #0 {
  %4 = alloca ptr, align 8
  %5 = alloca i32, align 4
  %6 = alloca i32, align 4
  %7 = alloca ptr, align 8
  %8 = alloca %struct.Fra_Par_t_, align 8
  %9 = alloca ptr, align 8
  store ptr %0, ptr %4, align 8, !tbaa !3
  store i32 %1, ptr %5, align 4, !tbaa !8
  store i32 %2, ptr %6, align 4, !tbaa !8
  call void @llvm.lifetime.start.p0(i64 8, ptr %7) #7
  call void @llvm.lifetime.start.p0(i64 120, ptr %8) #7
  call void @llvm.lifetime.start.p0(i64 8, ptr %9) #7
  store ptr %8, ptr %9, align 8, !tbaa !89
  %10 = load ptr, ptr %9, align 8, !tbaa !89
  call void @Fra_ParamsDefault(ptr noundef %10)
  %11 = load i32, ptr %5, align 4, !tbaa !8
  %12 = load ptr, ptr %9, align 8, !tbaa !89
  %13 = getelementptr inbounds nuw %struct.Fra_Par_t_, ptr %12, i32 0, i32 12
  store i32 %11, ptr %13, align 8, !tbaa !75
  %14 = load ptr, ptr %9, align 8, !tbaa !89
  %15 = getelementptr inbounds nuw %struct.Fra_Par_t_, ptr %14, i32 0, i32 6
  store i32 0, ptr %15, align 8, !tbaa !99
  %16 = load ptr, ptr %9, align 8, !tbaa !89
  %17 = getelementptr inbounds nuw %struct.Fra_Par_t_, ptr %16, i32 0, i32 10
  store i32 1, ptr %17, align 8, !tbaa !81
  %18 = load ptr, ptr %9, align 8, !tbaa !89
  %19 = getelementptr inbounds nuw %struct.Fra_Par_t_, ptr %18, i32 0, i32 7
  store i32 0, ptr %19, align 4, !tbaa !84
  %20 = load i32, ptr %6, align 4, !tbaa !8
  %21 = load ptr, ptr %9, align 8, !tbaa !89
  %22 = getelementptr inbounds nuw %struct.Fra_Par_t_, ptr %21, i32 0, i32 8
  store i32 %20, ptr %22, align 8, !tbaa !105
  %23 = load ptr, ptr %9, align 8, !tbaa !89
  %24 = getelementptr inbounds nuw %struct.Fra_Par_t_, ptr %23, i32 0, i32 9
  store i32 0, ptr %24, align 4, !tbaa !96
  %25 = load ptr, ptr %9, align 8, !tbaa !89
  %26 = getelementptr inbounds nuw %struct.Fra_Par_t_, ptr %25, i32 0, i32 24
  store i32 1, ptr %26, align 8, !tbaa !106
  %27 = load ptr, ptr %4, align 8, !tbaa !3
  %28 = load ptr, ptr %9, align 8, !tbaa !89
  %29 = call ptr @Fra_FraigPerform(ptr noundef %27, ptr noundef %28)
  store ptr %29, ptr %7, align 8, !tbaa !3
  %30 = load ptr, ptr %7, align 8, !tbaa !3
  call void @llvm.lifetime.end.p0(i64 8, ptr %9) #7
  call void @llvm.lifetime.end.p0(i64 120, ptr %8) #7
  call void @llvm.lifetime.end.p0(i64 8, ptr %7) #7
  ret ptr %30
}