; Function Attrs: nounwind uwtable
define ptr @Fra_FraigEquivence(ptr noundef %0, i32 noundef %1, i32 noundef %2) local_unnamed_addr #4 {
  %4 = alloca %struct.Fra_Par_t_, align 8
  call void @llvm.lifetime.start.p0(i64 120, ptr nonnull %4) #11
  call void @Fra_ParamsDefault(ptr noundef nonnull %4) #11
  %5 = getelementptr inbounds nuw i8, ptr %4, i64 64
  store i32 %1, ptr %5, align 8, !tbaa !68
  %6 = getelementptr inbounds nuw i8, ptr %4, i64 40
  store i32 0, ptr %6, align 8, !tbaa !96
  %7 = getelementptr inbounds nuw i8, ptr %4, i64 56
  store i32 1, ptr %7, align 8, !tbaa !77
  %8 = getelementptr inbounds nuw i8, ptr %4, i64 44
  store i32 0, ptr %8, align 4, !tbaa !81
  %9 = getelementptr inbounds nuw i8, ptr %4, i64 48
  store i32 %2, ptr %9, align 8, !tbaa !102
  %10 = getelementptr inbounds nuw i8, ptr %4, i64 52
  store i32 0, ptr %10, align 4, !tbaa !93
  %11 = getelementptr inbounds nuw i8, ptr %4, i64 112
  store i32 1, ptr %11, align 8, !tbaa !103
  %12 = call ptr @Fra_FraigPerform(ptr noundef %0, ptr noundef nonnull %4)
  call void @llvm.lifetime.end.p0(i64 120, ptr nonnull %4) #11
  ret ptr %12
}